target datalayout = "e-m:e-p270:32:32-p271:32:32-p272:64:64-i64:64-i128:128-f80:128-n8:16:32:64-S128"
target triple = "x86_64-pc-linux-gnu"

%struct.AVRational = type { i32, i32 }
%struct.AVFormatContext = type { ptr, ptr, ptr, ptr, ptr, i32, i32, ptr, i32, ptr, i32, ptr, ptr, i64, i64, i64, i32, i32, i32, i64, i64, ptr, i32, i32, ptr, i32, i32, i32, i32, ptr, i64, i32, i32, %struct.AVIOInterruptCB, i32, i32, i32, i32, i64, i32, i32, i32, i32, i32, i32, i32, i32, i32, i32, i32, i32, i64, i32, i32, i32, i32, i32, ptr, ptr, ptr, ptr, i32, ptr, ptr, ptr, ptr, i32, ptr, ptr, i64, ptr, ptr, ptr, i64 }
%struct.AVIOInterruptCB = type { ptr, ptr }
%struct.ogg = type { ptr, i32, i32, i32, i64, ptr }
%struct.ogg_stream = type { ptr, i32, i32, i32, i32, i32, i32, i32, i64, i64, i64, i64, i64, i64, i32, ptr, i32, i32, i32, [255 x i8], i32, i32, i32, i32, i32, i32, i32, i32, ptr, i64, ptr }
%struct.AVStream = type { ptr, i32, i32, ptr, ptr, %struct.AVRational, i64, i64, i64, i32, i32, %struct.AVRational, ptr, %struct.AVRational, %struct.AVPacket, i32, %struct.AVRational, i32 }
%struct.AVPacket = type { ptr, i64, i64, ptr, i32, i32, i32, ptr, i32, i64, i64, ptr, ptr, %struct.AVRational }

; Function Attrs: nounwind uwtable
define internal i64 @vp8_gptopts(ptr noundef %0, i32 noundef %1, i64 noundef %2, ptr noundef %3) #0 {
  %5 = alloca ptr, align 8
  %6 = alloca i32, align 4
  %7 = alloca i64, align 8
  %8 = alloca ptr, align 8
  %9 = alloca ptr, align 8
  %10 = alloca ptr, align 8
  %11 = alloca i32, align 4
  %12 = alloca i64, align 8
  %13 = alloca i32, align 4
  store ptr %0, ptr %5, align 8, !tbaa !4
  store i32 %1, ptr %6, align 4, !tbaa !9
  store i64 %2, ptr %7, align 8, !tbaa !84
  store ptr %3, ptr %8, align 8, !tbaa !85
  call void @llvm.lifetime.start.p0(i64 8, ptr %9) #5
  %14 = load ptr, ptr %5, align 8, !tbaa !4
  %15 = getelementptr inbounds nuw %struct.AVFormatContext, ptr %14, i32 0, i32 3
  %16 = load ptr, ptr %15, align 8, !tbaa !11
  store ptr %16, ptr %9, align 8, !tbaa !27
  call void @llvm.lifetime.start.p0(i64 8, ptr %10) #5
  %17 = load ptr, ptr %9, align 8, !tbaa !27
  %18 = getelementptr inbounds nuw %struct.ogg, ptr %17, i32 0, i32 0
  %19 = load ptr, ptr %18, align 8, !tbaa !29
  %20 = load i32, ptr %6, align 4, !tbaa !9
  %21 = sext i32 %20 to i64
  %22 = getelementptr inbounds %struct.ogg_stream, ptr %19, i64 %21
  store ptr %22, ptr %10, align 8, !tbaa !33
  call void @llvm.lifetime.start.p0(i64 4, ptr %11) #5
  %23 = load i64, ptr %7, align 8, !tbaa !84
  %24 = lshr i64 %23, 30
  %25 = and i64 %24, 3
  %26 = icmp ne i64 %25, 0
  %27 = xor i1 %26, true
  %28 = zext i1 %27 to i32
  store i32 %28, ptr %11, align 4, !tbaa !9
  call void @llvm.lifetime.start.p0(i64 8, ptr %12) #5
  %29 = load i64, ptr %7, align 8, !tbaa !84
  %30 = lshr i64 %29, 32
  %31 = load i32, ptr %11, align 4, !tbaa !9
  %32 = sext i32 %31 to i64
  %33 = sub i64 %30, %32
  store i64 %33, ptr %12, align 8, !tbaa !84
  call void @llvm.lifetime.start.p0(i64 4, ptr %13) #5
  %34 = load i64, ptr %7, align 8, !tbaa !84
  %35 = lshr i64 %34, 3
  %36 = and i64 %35, 134217727
  %37 = trunc i64 %36 to i32
  store i32 %37, ptr %13, align 4, !tbaa !9
  %38 = load i32, ptr %13, align 4, !tbaa !9
  %39 = icmp ne i32 %38, 0
  br i1 %39, label %45, label %40

40:                                               ; preds = %4
  %41 = load ptr, ptr %10, align 8, !tbaa !33
  %42 = getelementptr inbounds nuw %struct.ogg_stream, ptr %41, i32 0, i32 5
  %43 = load i32, ptr %42, align 8, !tbaa !87
  %44 = or i32 %43, 1
  store i32 %44, ptr %42, align 8, !tbaa !87
  br label %45

45:                                               ; preds = %40, %4
  %46 = load ptr, ptr %8, align 8, !tbaa !85
  %47 = icmp ne ptr %46, null
  br i1 %47, label %48, label %51

48:                                               ; preds = %45
  %49 = load i64, ptr %12, align 8, !tbaa !84
  %50 = load ptr, ptr %8, align 8, !tbaa !85
  store i64 %49, ptr %50, align 8, !tbaa !84
  br label %51

51:                                               ; preds = %48, %45
  %52 = load i64, ptr %12, align 8, !tbaa !84
  call void @llvm.lifetime.end.p0(i64 4, ptr %13) #5
  call void @llvm.lifetime.end.p0(i64 8, ptr %12) #5
  call void @llvm.lifetime.end.p0(i64 4, ptr %11) #5
  call void @llvm.lifetime.end.p0(i64 8, ptr %10) #5
  call void @llvm.lifetime.end.p0(i64 8, ptr %9) #5
  ret i64 %52
}

; Function Attrs: nounwind uwtable
define internal i32 @vp8_packet(ptr noundef %0, i32 noundef %1) #0 {
  %3 = alloca ptr, align 8
  %4 = alloca i32, align 4
  %5 = alloca ptr, align 8
  %6 = alloca ptr, align 8
  %7 = alloca ptr, align 8
  %8 = alloca i32, align 4
  %9 = alloca i32, align 4
  %10 = alloca ptr, align 8
  %11 = alloca ptr, align 8
  store ptr %0, ptr %3, align 8, !tbaa !4
  store i32 %1, ptr %4, align 4, !tbaa !9
  call void @llvm.lifetime.start.p0(i64 8, ptr %5) #5
  %12 = load ptr, ptr %3, align 8, !tbaa !4
  %13 = getelementptr inbounds nuw %struct.AVFormatContext, ptr %12, i32 0, i32 3
  %14 = load ptr, ptr %13, align 8, !tbaa !11
  store ptr %14, ptr %5, align 8, !tbaa !27
  call void @llvm.lifetime.start.p0(i64 8, ptr %6) #5
  %15 = load ptr, ptr %5, align 8, !tbaa !27
  %16 = getelementptr inbounds nuw %struct.ogg, ptr %15, i32 0, i32 0
  %17 = load ptr, ptr %16, align 8, !tbaa !29
  %18 = load i32, ptr %4, align 4, !tbaa !9
  %19 = sext i32 %18 to i64
  %20 = getelementptr inbounds %struct.ogg_stream, ptr %17, i64 %19
  store ptr %20, ptr %6, align 8, !tbaa !33
  call void @llvm.lifetime.start.p0(i64 8, ptr %7) #5
  %21 = load ptr, ptr %6, align 8, !tbaa !33
  %22 = getelementptr inbounds nuw %struct.ogg_stream, ptr %21, i32 0, i32 0
  %23 = load ptr, ptr %22, align 8, !tbaa !34
  %24 = load ptr, ptr %6, align 8, !tbaa !33
  %25 = getelementptr inbounds nuw %struct.ogg_stream, ptr %24, i32 0, i32 3
  %26 = load i32, ptr %25, align 8, !tbaa !37
  %27 = zext i32 %26 to i64
  %28 = getelementptr inbounds nuw i8, ptr %23, i64 %27
  store ptr %28, ptr %7, align 8, !tbaa !38
  %29 = load ptr, ptr %6, align 8, !tbaa !33
  %30 = getelementptr inbounds nuw %struct.ogg_stream, ptr %29, i32 0, i32 10
  %31 = load i64, ptr %30, align 8, !tbaa !73
  %32 = icmp ne i64 %31, 0
  br i1 %32, label %33, label %38

33:                                               ; preds = %2
  %34 = load ptr, ptr %6, align 8, !tbaa !33
  %35 = getelementptr inbounds nuw %struct.ogg_stream, ptr %34, i32 0, i32 10
  %36 = load i64, ptr %35, align 8, !tbaa !73
  %37 = icmp eq i64 %36, -9223372036854775808
  br i1 %37, label %38, label %188

38:                                               ; preds = %33, %2
  %39 = load ptr, ptr %6, align 8, !tbaa !33
  %40 = getelementptr inbounds nuw %struct.ogg_stream, ptr %39, i32 0, i32 14
  %41 = load i32, ptr %40, align 8, !tbaa !74
  %42 = and i32 %41, 4
  %43 = icmp ne i32 %42, 0
  br i1 %43, label %188, label %44

44:                                               ; preds = %38
  call void @llvm.lifetime.start.p0(i64 4, ptr %8) #5
  call void @llvm.lifetime.start.p0(i64 4, ptr %9) #5
  call void @llvm.lifetime.start.p0(i64 8, ptr %10) #5
  %45 = load ptr, ptr %7, align 8, !tbaa !38
  store ptr %45, ptr %10, align 8, !tbaa !38
  call void @llvm.lifetime.start.p0(i64 8, ptr %11) #5
  %46 = load ptr, ptr %6, align 8, !tbaa !33
  %47 = getelementptr inbounds nuw %struct.ogg_stream, ptr %46, i32 0, i32 18
  %48 = load i32, ptr %47, align 8, !tbaa !75
  store i32 %48, ptr %8, align 4, !tbaa !9
  %49 = load ptr, ptr %10, align 8, !tbaa !38
  %50 = getelementptr inbounds i8, ptr %49, i64 0
  %51 = load i8, ptr %50, align 1, !tbaa !43
  %52 = zext i8 %51 to i32
  %53 = ashr i32 %52, 4
  %54 = and i32 %53, 1
  store i32 %54, ptr %9, align 4, !tbaa !9
  %55 = load ptr, ptr %6, align 8, !tbaa !33
  %56 = getelementptr inbounds nuw %struct.ogg_stream, ptr %55, i32 0, i32 4
  %57 = load i32, ptr %56, align 4, !tbaa !42
  %58 = load ptr, ptr %10, align 8, !tbaa !38
  %59 = zext i32 %57 to i64
  %60 = getelementptr inbounds nuw i8, ptr %58, i64 %59
  store ptr %60, ptr %10, align 8, !tbaa !38
  store ptr %60, ptr %11, align 8, !tbaa !38
  br label %61

61:                                               ; preds = %106, %44
  %62 = load i32, ptr %8, align 4, !tbaa !9
  %63 = load ptr, ptr %6, align 8, !tbaa !33
  %64 = getelementptr inbounds nuw %struct.ogg_stream, ptr %63, i32 0, i32 17
  %65 = load i32, ptr %64, align 4, !tbaa !76
  %66 = icmp slt i32 %62, %65
  br i1 %66, label %67, label %109

67:                                               ; preds = %61
  %68 = load ptr, ptr %6, align 8, !tbaa !33
  %69 = getelementptr inbounds nuw %struct.ogg_stream, ptr %68, i32 0, i32 19
  %70 = load i32, ptr %8, align 4, !tbaa !9
  %71 = sext i32 %70 to i64
  %72 = getelementptr inbounds [255 x i8], ptr %69, i64 0, i64 %71
  %73 = load i8, ptr %72, align 1, !tbaa !43
  %74 = zext i8 %73 to i32
  %75 = icmp slt i32 %74, 255
  br i1 %75, label %76, label %95

76:                                               ; preds = %67
  %77 = load ptr, ptr %10, align 8, !tbaa !38
  %78 = getelementptr inbounds i8, ptr %77, i64 0
  %79 = load i8, ptr %78, align 1, !tbaa !43
  %80 = zext i8 %79 to i32
  %81 = ashr i32 %80, 4
  %82 = and i32 %81, 1
  %83 = load i32, ptr %9, align 4, !tbaa !9
  %84 = add nsw i32 %83, %82
  store i32 %84, ptr %9, align 4, !tbaa !9
  %85 = load ptr, ptr %11, align 8, !tbaa !38
  %86 = load ptr, ptr %6, align 8, !tbaa !33
  %87 = getelementptr inbounds nuw %struct.ogg_stream, ptr %86, i32 0, i32 19
  %88 = load i32, ptr %8, align 4, !tbaa !9
  %89 = sext i32 %88 to i64
  %90 = getelementptr inbounds [255 x i8], ptr %87, i64 0, i64 %89
  %91 = load i8, ptr %90, align 1, !tbaa !43
  %92 = zext i8 %91 to i32
  %93 = sext i32 %92 to i64
  %94 = getelementptr inbounds i8, ptr %85, i64 %93
  store ptr %94, ptr %10, align 8, !tbaa !38
  br label %95

95:                                               ; preds = %76, %67
  %96 = load ptr, ptr %6, align 8, !tbaa !33
  %97 = getelementptr inbounds nuw %struct.ogg_stream, ptr %96, i32 0, i32 19
  %98 = load i32, ptr %8, align 4, !tbaa !9
  %99 = sext i32 %98 to i64
  %100 = getelementptr inbounds [255 x i8], ptr %97, i64 0, i64 %99
  %101 = load i8, ptr %100, align 1, !tbaa !43
  %102 = zext i8 %101 to i32
  %103 = load ptr, ptr %11, align 8, !tbaa !38
  %104 = sext i32 %102 to i64
  %105 = getelementptr inbounds i8, ptr %103, i64 %104
  store ptr %105, ptr %11, align 8, !tbaa !38
  br label %106

106:                                              ; preds = %95
  %107 = load i32, ptr %8, align 4, !tbaa !9
  %108 = add nsw i32 %107, 1
  store i32 %108, ptr %8, align 4, !tbaa !9
  br label %61, !llvm.loop !77

109:                                              ; preds = %61
  %110 = load ptr, ptr %3, align 8, !tbaa !4
  %111 = load i32, ptr %4, align 4, !tbaa !9
  %112 = load ptr, ptr %6, align 8, !tbaa !33
  %113 = getelementptr inbounds nuw %struct.ogg_stream, ptr %112, i32 0, i32 8
  %114 = load i64, ptr %113, align 8, !tbaa !79
  %115 = call i64 @vp8_gptopts(ptr noundef %110, i32 noundef %111, i64 noundef %114, ptr noundef null)
  %116 = load i32, ptr %9, align 4, !tbaa !9
  %117 = sext i32 %116 to i64
  %118 = sub i64 %115, %117
  %119 = load ptr, ptr %6, align 8, !tbaa !33
  %120 = getelementptr inbounds nuw %struct.ogg_stream, ptr %119, i32 0, i32 11
  store i64 %118, ptr %120, align 8, !tbaa !80
  %121 = load ptr, ptr %6, align 8, !tbaa !33
  %122 = getelementptr inbounds nuw %struct.ogg_stream, ptr %121, i32 0, i32 10
  store i64 %118, ptr %122, align 8, !tbaa !73
  %123 = load ptr, ptr %3, align 8, !tbaa !4
  %124 = getelementptr inbounds nuw %struct.AVFormatContext, ptr %123, i32 0, i32 7
  %125 = load ptr, ptr %124, align 8, !tbaa !39
  %126 = load i32, ptr %4, align 4, !tbaa !9
  %127 = sext i32 %126 to i64
  %128 = getelementptr inbounds ptr, ptr %125, i64 %127
  %129 = load ptr, ptr %128, align 8, !tbaa !40
  %130 = getelementptr inbounds nuw %struct.AVStream, ptr %129, i32 0, i32 6
  %131 = load i64, ptr %130, align 8, !tbaa !81
  %132 = icmp eq i64 %131, -9223372036854775808
  br i1 %132, label %133, label %187

133:                                              ; preds = %109
  %134 = load ptr, ptr %6, align 8, !tbaa !33
  %135 = getelementptr inbounds nuw %struct.ogg_stream, ptr %134, i32 0, i32 10
  %136 = load i64, ptr %135, align 8, !tbaa !73
  %137 = load ptr, ptr %3, align 8, !tbaa !4
  %138 = getelementptr inbounds nuw %struct.AVFormatContext, ptr %137, i32 0, i32 7
  %139 = load ptr, ptr %138, align 8, !tbaa !39
  %140 = load i32, ptr %4, align 4, !tbaa !9
  %141 = sext i32 %140 to i64
  %142 = getelementptr inbounds ptr, ptr %139, i64 %141
  %143 = load ptr, ptr %142, align 8, !tbaa !40
  %144 = getelementptr inbounds nuw %struct.AVStream, ptr %143, i32 0, i32 6
  store i64 %136, ptr %144, align 8, !tbaa !81
  %145 = load ptr, ptr %3, align 8, !tbaa !4
  %146 = getelementptr inbounds nuw %struct.AVFormatContext, ptr %145, i32 0, i32 7
  %147 = load ptr, ptr %146, align 8, !tbaa !39
  %148 = load i32, ptr %4, align 4, !tbaa !9
  %149 = sext i32 %148 to i64
  %150 = getelementptr inbounds ptr, ptr %147, i64 %149
  %151 = load ptr, ptr %150, align 8, !tbaa !40
  %152 = getelementptr inbounds nuw %struct.AVStream, ptr %151, i32 0, i32 7
  %153 = load i64, ptr %152, align 8, !tbaa !82
  %154 = icmp ne i64 %153, 0
  br i1 %154, label %155, label %186

155:                                              ; preds = %133
  %156 = load ptr, ptr %3, align 8, !tbaa !4
  %157 = getelementptr inbounds nuw %struct.AVFormatContext, ptr %156, i32 0, i32 7
  %158 = load ptr, ptr %157, align 8, !tbaa !39
  %159 = load i32, ptr %4, align 4, !tbaa !9
  %160 = sext i32 %159 to i64
  %161 = getelementptr inbounds ptr, ptr %158, i64 %160
  %162 = load ptr, ptr %161, align 8, !tbaa !40
  %163 = getelementptr inbounds nuw %struct.AVStream, ptr %162, i32 0, i32 7
  %164 = load i64, ptr %163, align 8, !tbaa !82
  %165 = icmp ne i64 %164, -9223372036854775808
  br i1 %165, label %166, label %186

166:                                              ; preds = %155
  %167 = load ptr, ptr %3, align 8, !tbaa !4
  %168 = getelementptr inbounds nuw %struct.AVFormatContext, ptr %167, i32 0, i32 7
  %169 = load ptr, ptr %168, align 8, !tbaa !39
  %170 = load i32, ptr %4, align 4, !tbaa !9
  %171 = sext i32 %170 to i64
  %172 = getelementptr inbounds ptr, ptr %169, i64 %171
  %173 = load ptr, ptr %172, align 8, !tbaa !40
  %174 = getelementptr inbounds nuw %struct.AVStream, ptr %173, i32 0, i32 6
  %175 = load i64, ptr %174, align 8, !tbaa !81
  %176 = load ptr, ptr %3, align 8, !tbaa !4
  %177 = getelementptr inbounds nuw %struct.AVFormatContext, ptr %176, i32 0, i32 7
  %178 = load ptr, ptr %177, align 8, !tbaa !39
  %179 = load i32, ptr %4, align 4, !tbaa !9
  %180 = sext i32 %179 to i64
  %181 = getelementptr inbounds ptr, ptr %178, i64 %180
  %182 = load ptr, ptr %181, align 8, !tbaa !40
  %183 = getelementptr inbounds nuw %struct.AVStream, ptr %182, i32 0, i32 7
  %184 = load i64, ptr %183, align 8, !tbaa !82
  %185 = sub nsw i64 %184, %175
  store i64 %185, ptr %183, align 8, !tbaa !82
  br label %186

186:                                              ; preds = %166, %155, %133
  br label %187

187:                                              ; preds = %186, %109
  call void @llvm.lifetime.end.p0(i64 8, ptr %11) #5
  call void @llvm.lifetime.end.p0(i64 8, ptr %10) #5
  call void @llvm.lifetime.end.p0(i64 4, ptr %9) #5
  call void @llvm.lifetime.end.p0(i64 4, ptr %8) #5
  br label %188

188:                                              ; preds = %187, %38, %33
  %189 = load ptr, ptr %6, align 8, !tbaa !33
  %190 = getelementptr inbounds nuw %struct.ogg_stream, ptr %189, i32 0, i32 4
  %191 = load i32, ptr %190, align 4, !tbaa !42
  %192 = icmp ugt i32 %191, 0
  br i1 %192, label %193, label %202

193:                                              ; preds = %188
  %194 = load ptr, ptr %7, align 8, !tbaa !38
  %195 = getelementptr inbounds i8, ptr %194, i64 0
  %196 = load i8, ptr %195, align 1, !tbaa !43
  %197 = zext i8 %196 to i32
  %198 = ashr i32 %197, 4
  %199 = and i32 %198, 1
  %200 = load ptr, ptr %6, align 8, !tbaa !33
  %201 = getelementptr inbounds nuw %struct.ogg_stream, ptr %200, i32 0, i32 6
  store i32 %199, ptr %201, align 4, !tbaa !83
  br label %202

202:                                              ; preds = %193, %188
  call void @llvm.lifetime.end.p0(i64 8, ptr %7) #5
  call void @llvm.lifetime.end.p0(i64 8, ptr %6) #5
  call void @llvm.lifetime.end.p0(i64 8, ptr %5) #5
  ret i32 0
}