; Function Attrs: nofree norecurse nosync nounwind memory(readwrite, inaccessiblemem: none) uwtable
define internal noundef i32 @vp8_packet(ptr noundef readonly captures(none) %0, i32 noundef %1) #1 {
  %3 = getelementptr inbounds nuw i8, ptr %0, i64 24
  %4 = load ptr, ptr %3, align 8, !tbaa !4
  %5 = load ptr, ptr %4, align 8, !tbaa !24
  %6 = sext i32 %1 to i64
  %7 = getelementptr inbounds %struct.ogg_stream, ptr %5, i64 %6
  %8 = load ptr, ptr %7, align 8, !tbaa !28
  %9 = getelementptr inbounds nuw i8, ptr %7, i64 16
  %10 = load i32, ptr %9, align 8, !tbaa !31
  %11 = zext i32 %10 to i64
  %12 = getelementptr inbounds nuw i8, ptr %8, i64 %11
  %13 = getelementptr inbounds nuw i8, ptr %7, i64 56
  %14 = load i64, ptr %13, align 8, !tbaa !65
  switch i64 %14, label %72 [
    i64 0, label %15
    i64 -9223372036854775808, label %15
  ]

15:                                               ; preds = %2, %2
  %16 = getelementptr inbounds nuw i8, ptr %7, i64 88
  %17 = load i32, ptr %16, align 8, !tbaa !66
  %18 = and i32 %17, 4
  %.not54 = icmp eq i32 %18, 0
  br i1 %.not54, label %19, label %72

19:                                               ; preds = %15
  %20 = getelementptr inbounds nuw i8, ptr %7, i64 112
  %21 = load i32, ptr %20, align 8, !tbaa !67
  %22 = load i8, ptr %12, align 1, !tbaa !36
  %23 = lshr i8 %22, 4
  %24 = and i8 %23, 1
  %25 = zext nneg i8 %24 to i32
  %26 = getelementptr inbounds nuw i8, ptr %7, i64 108
  %27 = load i32, ptr %26, align 4, !tbaa !68
  %28 = icmp slt i32 %21, %27
  br i1 %28, label %.lr.ph, label %._crit_edge

.lr.ph:                                           ; preds = %19
  %29 = getelementptr inbounds nuw i8, ptr %7, i64 20
  %30 = load i32, ptr %29, align 4, !tbaa !35
  %31 = zext i32 %30 to i64
  %32 = getelementptr inbounds nuw i8, ptr %12, i64 %31
  %33 = getelementptr inbounds nuw i8, ptr %7, i64 116
  %34 = sext i32 %21 to i64
  %wide.trip.count = sext i32 %27 to i64
  br label %35

35:                                               ; preds = %.lr.ph, %._crit_edge64
  %indvars.iv = phi i64 [ %34, %.lr.ph ], [ %indvars.iv.next, %._crit_edge64 ]
  %.062 = phi ptr [ %32, %.lr.ph ], [ %46, %._crit_edge64 ]
  %.04761 = phi ptr [ %32, %.lr.ph ], [ %.1, %._crit_edge64 ]
  %.04860 = phi i32 [ %25, %.lr.ph ], [ %.149, %._crit_edge64 ]
  %36 = getelementptr inbounds [255 x i8], ptr %33, i64 0, i64 %indvars.iv
  %37 = load i8, ptr %36, align 1, !tbaa !36
  %.not57 = icmp eq i8 %37, -1
  br i1 %.not57, label %._crit_edge64, label %38

38:                                               ; preds = %35
  %39 = load i8, ptr %.04761, align 1, !tbaa !36
  %40 = lshr i8 %39, 4
  %41 = and i8 %40, 1
  %42 = zext nneg i8 %41 to i32
  %43 = add nsw i32 %.04860, %42
  %44 = zext i8 %37 to i64
  %45 = getelementptr inbounds nuw i8, ptr %.062, i64 %44
  br label %._crit_edge64

._crit_edge64:                                    ; preds = %35, %38
  %.pre-phi = phi i64 [ %44, %38 ], [ 255, %35 ]
  %.149 = phi i32 [ %43, %38 ], [ %.04860, %35 ]
  %.1 = phi ptr [ %45, %38 ], [ %.04761, %35 ]
  %46 = getelementptr inbounds nuw i8, ptr %.062, i64 %.pre-phi
  %indvars.iv.next = add nsw i64 %indvars.iv, 1
  %exitcond.not = icmp eq i64 %indvars.iv.next, %wide.trip.count
  br i1 %exitcond.not, label %._crit_edge, label %35, !llvm.loop !69

._crit_edge:                                      ; preds = %._crit_edge64, %19
  %.048.lcssa = phi i32 [ %25, %19 ], [ %.149, %._crit_edge64 ]
  %47 = getelementptr inbounds nuw i8, ptr %7, i64 40
  %48 = load i64, ptr %47, align 8, !tbaa !71
  %49 = and i64 %48, 3221225472
  %.not.i = icmp eq i64 %49, 0
  %50 = lshr i64 %48, 32
  %.neg.i = sext i1 %.not.i to i64
  %51 = and i64 %48, 1073741816
  %.not12.i = icmp eq i64 %51, 0
  br i1 %.not12.i, label %52, label %vp8_gptopts.exit

52:                                               ; preds = %._crit_edge
  %53 = getelementptr inbounds %struct.ogg_stream, ptr %5, i64 %6, i32 5
  %54 = load i32, ptr %53, align 8, !tbaa !72
  %55 = or i32 %54, 1
  store i32 %55, ptr %53, align 8, !tbaa !72
  br label %vp8_gptopts.exit

vp8_gptopts.exit:                                 ; preds = %._crit_edge, %52
  %56 = sext i32 %.048.lcssa to i64
  %57 = sub nsw i64 %50, %56
  %58 = add nsw i64 %57, %.neg.i
  %59 = getelementptr inbounds nuw i8, ptr %7, i64 64
  store i64 %58, ptr %59, align 8, !tbaa !73
  store i64 %58, ptr %13, align 8, !tbaa !65
  %60 = getelementptr inbounds nuw i8, ptr %0, i64 48
  %61 = load ptr, ptr %60, align 8, !tbaa !32
  %62 = getelementptr inbounds ptr, ptr %61, i64 %6
  %63 = load ptr, ptr %62, align 8, !tbaa !33
  %64 = getelementptr inbounds nuw i8, ptr %63, i64 40
  %65 = load i64, ptr %64, align 8, !tbaa !74
  %66 = icmp eq i64 %65, -9223372036854775808
  br i1 %66, label %67, label %72

67:                                               ; preds = %vp8_gptopts.exit
  store i64 %58, ptr %64, align 8, !tbaa !74
  %68 = getelementptr inbounds nuw i8, ptr %63, i64 48
  %69 = load i64, ptr %68, align 8, !tbaa !75
  switch i64 %69, label %70 [
    i64 0, label %72
    i64 -9223372036854775808, label %72
  ]

70:                                               ; preds = %67
  %71 = sub nsw i64 %69, %58
  store i64 %71, ptr %68, align 8, !tbaa !75
  br label %72

72:                                               ; preds = %vp8_gptopts.exit, %70, %67, %67, %2, %15
  %73 = getelementptr inbounds nuw i8, ptr %7, i64 20
  %74 = load i32, ptr %73, align 4, !tbaa !35
  %.not58 = icmp eq i32 %74, 0
  br i1 %.not58, label %81, label %75

75:                                               ; preds = %72
  %76 = load i8, ptr %12, align 1, !tbaa !36
  %77 = lshr i8 %76, 4
  %78 = and i8 %77, 1
  %79 = zext nneg i8 %78 to i32
  %80 = getelementptr inbounds nuw i8, ptr %7, i64 28
  store i32 %79, ptr %80, align 4, !tbaa !76
  br label %81

81:                                               ; preds = %75, %72
  ret i32 0
}